; ModuleID = '15/1548.c'
source_filename = "15/1548.c"
target datalayout = "e-m:e-p270:32:32-p271:32:32-p272:64:64-i64:64-f80:128-n8:16:32:64-S128"
target triple = "x86_64-pc-linux-gnu"

@.str = private unnamed_addr constant [3 x i8] c"%d\00", align 1

; Function Attrs: noinline nounwind uwtable
define dso_local i32 @main() #0 {
  %1 = alloca i32, align 4
  %2 = alloca i32, align 4
  %3 = alloca [100 x [100 x i32]], align 16
  %4 = alloca i32, align 4
  %5 = alloca i32, align 4
  %6 = alloca i32, align 4
  %7 = alloca i32, align 4
  %8 = alloca i32, align 4
  %9 = alloca i32, align 4
  %10 = alloca i32, align 4
  %11 = alloca i32, align 4
  %12 = alloca i32, align 4
  %13 = alloca i32, align 4
  %14 = alloca i32, align 4
  %15 = alloca i32, align 4
  store i32 0, i32* %1, align 4
  store i32 0, i32* %6, align 4
  store i32 0, i32* %7, align 4
  store i32 0, i32* %8, align 4
  store i32 0, i32* %9, align 4
  store i32 0, i32* %10, align 4
  store i32 0, i32* %11, align 4
  %16 = call i32 (i8*, ...) @__isoc99_scanf(i8* getelementptr inbounds ([3 x i8], [3 x i8]* @.str, i64 0, i64 0), i32* %2)
  store i32 0, i32* %4, align 4
  br label %17

17:                                               ; preds = %38, %0
  %18 = load i32, i32* %4, align 4
  %19 = load i32, i32* %2, align 4
  %20 = icmp slt i32 %18, %19
  br i1 %20, label %21, label %41

21:                                               ; preds = %17
  store i32 0, i32* %5, align 4
  br label %22

22:                                               ; preds = %34, %21
  %23 = load i32, i32* %5, align 4
  %24 = load i32, i32* %2, align 4
  %25 = icmp slt i32 %23, %24
  br i1 %25, label %26, label %37

26:                                               ; preds = %22
  %27 = load i32, i32* %4, align 4
  %28 = sext i32 %27 to i64
  %29 = getelementptr inbounds [100 x [100 x i32]], [100 x [100 x i32]]* %3, i64 0, i64 %28
  %30 = load i32, i32* %5, align 4
  %31 = sext i32 %30 to i64
  %32 = getelementptr inbounds [100 x i32], [100 x i32]* %29, i64 0, i64 %31
  %33 = call i32 (i8*, ...) @__isoc99_scanf(i8* getelementptr inbounds ([3 x i8], [3 x i8]* @.str, i64 0, i64 0), i32* %32)
  br label %34

34:                                               ; preds = %26
  %35 = load i32, i32* %5, align 4
  %36 = add nsw i32 %35, 1
  store i32 %36, i32* %5, align 4
  br label %22

37:                                               ; preds = %22
  br label %38

38:                                               ; preds = %37
  %39 = load i32, i32* %4, align 4
  %40 = add nsw i32 %39, 1
  store i32 %40, i32* %4, align 4
  br label %17

41:                                               ; preds = %17
  store i32 0, i32* %12, align 4
  br label %42

42:                                               ; preds = %73, %41
  %43 = load i32, i32* %12, align 4
  %44 = load i32, i32* %2, align 4
  %45 = icmp slt i32 %43, %44
  br i1 %45, label %46, label %76

46:                                               ; preds = %42
  %47 = load i32, i32* %11, align 4
  %48 = icmp ne i32 %47, 1
  br i1 %48, label %49, label %71

49:                                               ; preds = %46
  store i32 0, i32* %13, align 4
  br label %50

50:                                               ; preds = %67, %49
  %51 = load i32, i32* %13, align 4
  %52 = load i32, i32* %2, align 4
  %53 = icmp slt i32 %51, %52
  br i1 %53, label %54, label %70

54:                                               ; preds = %50
  %55 = load i32, i32* %13, align 4
  %56 = sext i32 %55 to i64
  %57 = getelementptr inbounds [100 x [100 x i32]], [100 x [100 x i32]]* %3, i64 0, i64 %56
  %58 = load i32, i32* %12, align 4
  %59 = sext i32 %58 to i64
  %60 = getelementptr inbounds [100 x i32], [100 x i32]* %57, i64 0, i64 %59
  %61 = load i32, i32* %60, align 4
  %62 = icmp eq i32 %61, 0
  br i1 %62, label %63, label %66

63:                                               ; preds = %54
  %64 = load i32, i32* %13, align 4
  store i32 %64, i32* %6, align 4
  %65 = load i32, i32* %12, align 4
  store i32 %65, i32* %7, align 4
  store i32 1, i32* %11, align 4
  br label %70

66:                                               ; preds = %54
  br label %67

67:                                               ; preds = %66
  %68 = load i32, i32* %13, align 4
  %69 = add nsw i32 %68, 1
  store i32 %69, i32* %13, align 4
  br label %50

70:                                               ; preds = %63, %50
  br label %72

71:                                               ; preds = %46
  br label %76

72:                                               ; preds = %70
  br label %73

73:                                               ; preds = %72
  %74 = load i32, i32* %12, align 4
  %75 = add nsw i32 %74, 1
  store i32 %75, i32* %12, align 4
  br label %42

76:                                               ; preds = %71, %42
  %77 = load i32, i32* %2, align 4
  %78 = sub nsw i32 %77, 1
  store i32 %78, i32* %14, align 4
  br label %79

79:                                               ; preds = %110, %76
  %80 = load i32, i32* %14, align 4
  %81 = icmp sge i32 %80, 0
  br i1 %81, label %82, label %113

82:                                               ; preds = %79
  %83 = load i32, i32* %11, align 4
  %84 = icmp ne i32 %83, 0
  br i1 %84, label %85, label %108

85:                                               ; preds = %82
  %86 = load i32, i32* %2, align 4
  %87 = sub nsw i32 %86, 1
  store i32 %87, i32* %15, align 4
  br label %88

88:                                               ; preds = %104, %85
  %89 = load i32, i32* %15, align 4
  %90 = icmp sge i32 %89, 0
  br i1 %90, label %91, label %107

91:                                               ; preds = %88
  %92 = load i32, i32* %15, align 4
  %93 = sext i32 %92 to i64
  %94 = getelementptr inbounds [100 x [100 x i32]], [100 x [100 x i32]]* %3, i64 0, i64 %93
  %95 = load i32, i32* %14, align 4
  %96 = sext i32 %95 to i64
  %97 = getelementptr inbounds [100 x i32], [100 x i32]* %94, i64 0, i64 %96
  %98 = load i32, i32* %97, align 4
  %99 = icmp eq i32 %98, 0
  br i1 %99, label %100, label %103

100:                                              ; preds = %91
  %101 = load i32, i32* %15, align 4
  store i32 %101, i32* %8, align 4
  %102 = load i32, i32* %14, align 4
  store i32 %102, i32* %9, align 4
  store i32 0, i32* %11, align 4
  br label %107

103:                                              ; preds = %91
  br label %104

104:                                              ; preds = %103
  %105 = load i32, i32* %15, align 4
  %106 = add nsw i32 %105, -1
  store i32 %106, i32* %15, align 4
  br label %88

107:                                              ; preds = %100, %88
  br label %109

108:                                              ; preds = %82
  br label %113

109:                                              ; preds = %107
  br label %110

110:                                              ; preds = %109
  %111 = load i32, i32* %14, align 4
  %112 = add nsw i32 %111, -1
  store i32 %112, i32* %14, align 4
  br label %79

113:                                              ; preds = %108, %79
  %114 = load i32, i32* %8, align 4
  %115 = load i32, i32* %6, align 4
  %116 = sub nsw i32 %114, %115
  %117 = sub nsw i32 %116, 1
  %118 = load i32, i32* %9, align 4
  %119 = load i32, i32* %7, align 4
  %120 = sub nsw i32 %118, %119
  %121 = sub nsw i32 %120, 1
  %122 = mul nsw i32 %117, %121
  store i32 %122, i32* %10, align 4
  %123 = load i32, i32* %10, align 4
  %124 = call i32 (i8*, ...) @printf(i8* getelementptr inbounds ([3 x i8], [3 x i8]* @.str, i64 0, i64 0), i32 %123)
  ret i32 0
}

declare dso_local i32 @__isoc99_scanf(i8*, ...) #1

declare dso_local i32 @printf(i8*, ...) #1


!llvm.module.flags = !{!0}
!llvm.ident = !{!1}

!0 = !{i32 1, !"wchar_size", i32 4}
!1 = !{!"clang version 10.0.0-4ubuntu1 "}
